target datalayout = "e-m:e-p270:32:32-p271:32:32-p272:64:64-i64:64-i128:128-f80:128-n8:16:32:64-S128"
target triple = "x86_64-pc-linux-gnu"

%struct.Fraig_ManStruct_t_ = type { ptr, ptr, ptr, ptr, ptr, ptr, ptr, ptr, ptr, i32, i32, i32, i32, i32, i32, i32, i32, i32, i32, i32, i32, i64, i32, i32, i32, i32, i32, ptr, ptr, ptr, ptr, ptr, i32, ptr, ptr, ptr, ptr, ptr, ptr, i32, ptr, ptr, ptr, ptr, i32, i32, i32, i32, i32, i32, i32, i32, i32, i32, i32, i32, i32, i32, i32, i32, i32, i32, i32, i64, i64, i64, i64, i64, i64, i64, i64, i64, i64, i64, i64 }
%struct.Fraig_NodeVecStruct_t_ = type { i32, i32, ptr }
%struct.Fraig_NodeStruct_t_ = type { i32, i32, i32, i32, i32, i32, i32, ptr, ptr, ptr, ptr, ptr, ptr, ptr, ptr, i32, i32, ptr, ptr, ptr, ptr, ptr, ptr, ptr }

; Function Attrs: nounwind uwtable
define ptr @Fraig_Dfs(ptr noundef %0, i32 noundef %1) #0 {
  %3 = alloca ptr, align 8
  %4 = alloca i32, align 4
  %5 = alloca ptr, align 8
  %6 = alloca i32, align 4
  store ptr %0, ptr %3, align 8
  store i32 %1, ptr %4, align 4
  %7 = load ptr, ptr %3, align 8
  %8 = getelementptr inbounds %struct.Fraig_ManStruct_t_, ptr %7, i32 0, i32 22
  %9 = load i32, ptr %8, align 8
  %10 = add nsw i32 %9, 1
  store i32 %10, ptr %8, align 8
  %11 = call ptr @Fraig_NodeVecAlloc(i32 noundef 100)
  store ptr %11, ptr %5, align 8
  store i32 0, ptr %6, align 4
  br label %12

12:                                               ; preds = %36, %2
  %13 = load i32, ptr %6, align 4
  %14 = load ptr, ptr %3, align 8
  %15 = getelementptr inbounds %struct.Fraig_ManStruct_t_, ptr %14, i32 0, i32 2
  %16 = load ptr, ptr %15, align 8
  %17 = getelementptr inbounds %struct.Fraig_NodeVecStruct_t_, ptr %16, i32 0, i32 1
  %18 = load i32, ptr %17, align 4
  %19 = icmp slt i32 %13, %18
  br i1 %19, label %20, label %39

20:                                               ; preds = %12
  %21 = load ptr, ptr %3, align 8
  %22 = load ptr, ptr %3, align 8
  %23 = getelementptr inbounds %struct.Fraig_ManStruct_t_, ptr %22, i32 0, i32 2
  %24 = load ptr, ptr %23, align 8
  %25 = getelementptr inbounds %struct.Fraig_NodeVecStruct_t_, ptr %24, i32 0, i32 2
  %26 = load ptr, ptr %25, align 8
  %27 = load i32, ptr %6, align 4
  %28 = sext i32 %27 to i64
  %29 = getelementptr inbounds ptr, ptr %26, i64 %28
  %30 = load ptr, ptr %29, align 8
  %31 = ptrtoint ptr %30 to i64
  %32 = and i64 %31, -2
  %33 = inttoptr i64 %32 to ptr
  %34 = load ptr, ptr %5, align 8
  %35 = load i32, ptr %4, align 4
  call void @Fraig_Dfs_rec(ptr noundef %21, ptr noundef %33, ptr noundef %34, i32 noundef %35)
  br label %36

36:                                               ; preds = %20
  %37 = load i32, ptr %6, align 4
  %38 = add nsw i32 %37, 1
  store i32 %38, ptr %6, align 4
  br label %12, !llvm.loop !4

39:                                               ; preds = %12
  %40 = load ptr, ptr %5, align 8
  ret ptr %40
}

; Function Attrs: nounwind uwtable
define void @Fraig_ManMarkRealFanouts(ptr noundef %0) #0 {
  %2 = alloca ptr, align 8
  %3 = alloca ptr, align 8
  %4 = alloca ptr, align 8
  %5 = alloca i32, align 4
  store ptr %0, ptr %2, align 8
  %6 = load ptr, ptr %2, align 8
  %7 = call ptr @Fraig_Dfs(ptr noundef %6, i32 noundef 0)
  store ptr %7, ptr %3, align 8
  store i32 0, ptr %5, align 4
  br label %8

8:                                                ; preds = %34, %1
  %9 = load i32, ptr %5, align 4
  %10 = load ptr, ptr %3, align 8
  %11 = getelementptr inbounds %struct.Fraig_NodeVecStruct_t_, ptr %10, i32 0, i32 1
  %12 = load i32, ptr %11, align 4
  %13 = icmp slt i32 %9, %12
  br i1 %13, label %14, label %37

14:                                               ; preds = %8
  %15 = load ptr, ptr %3, align 8
  %16 = getelementptr inbounds %struct.Fraig_NodeVecStruct_t_, ptr %15, i32 0, i32 2
  %17 = load ptr, ptr %16, align 8
  %18 = load i32, ptr %5, align 4
  %19 = sext i32 %18 to i64
  %20 = getelementptr inbounds ptr, ptr %17, i64 %19
  %21 = load ptr, ptr %20, align 8
  %22 = getelementptr inbounds %struct.Fraig_NodeStruct_t_, ptr %21, i32 0, i32 6
  %23 = load i32, ptr %22, align 8
  %24 = and i32 %23, -3073
  %25 = or i32 %24, 0
  store i32 %25, ptr %22, align 8
  %26 = load ptr, ptr %3, align 8
  %27 = getelementptr inbounds %struct.Fraig_NodeVecStruct_t_, ptr %26, i32 0, i32 2
  %28 = load ptr, ptr %27, align 8
  %29 = load i32, ptr %5, align 4
  %30 = sext i32 %29 to i64
  %31 = getelementptr inbounds ptr, ptr %28, i64 %30
  %32 = load ptr, ptr %31, align 8
  %33 = getelementptr inbounds %struct.Fraig_NodeStruct_t_, ptr %32, i32 0, i32 19
  store ptr null, ptr %33, align 8
  br label %34

34:                                               ; preds = %14
  %35 = load i32, ptr %5, align 4
  %36 = add nsw i32 %35, 1
  store i32 %36, ptr %5, align 4
  br label %8, !llvm.loop !7

37:                                               ; preds = %8
  store i32 0, ptr %5, align 4
  br label %38

38:                                               ; preds = %113, %37
  %39 = load i32, ptr %5, align 4
  %40 = load ptr, ptr %3, align 8
  %41 = getelementptr inbounds %struct.Fraig_NodeVecStruct_t_, ptr %40, i32 0, i32 1
  %42 = load i32, ptr %41, align 4
  %43 = icmp slt i32 %39, %42
  br i1 %43, label %44, label %116

44:                                               ; preds = %38
  %45 = load ptr, ptr %3, align 8
  %46 = getelementptr inbounds %struct.Fraig_NodeVecStruct_t_, ptr %45, i32 0, i32 2
  %47 = load ptr, ptr %46, align 8
  %48 = load i32, ptr %5, align 4
  %49 = sext i32 %48 to i64
  %50 = getelementptr inbounds ptr, ptr %47, i64 %49
  %51 = load ptr, ptr %50, align 8
  %52 = getelementptr inbounds %struct.Fraig_NodeStruct_t_, ptr %51, i32 0, i32 7
  %53 = load ptr, ptr %52, align 8
  %54 = ptrtoint ptr %53 to i64
  %55 = and i64 %54, -2
  %56 = inttoptr i64 %55 to ptr
  store ptr %56, ptr %4, align 8
  %57 = load ptr, ptr %4, align 8
  %58 = icmp ne ptr %57, null
  br i1 %58, label %59, label %78

59:                                               ; preds = %44
  %60 = load ptr, ptr %4, align 8
  %61 = getelementptr inbounds %struct.Fraig_NodeStruct_t_, ptr %60, i32 0, i32 6
  %62 = load i32, ptr %61, align 8
  %63 = lshr i32 %62, 10
  %64 = and i32 %63, 3
  %65 = add i32 %64, 1
  %66 = load i32, ptr %61, align 8
  %67 = and i32 %65, 3
  %68 = shl i32 %67, 10
  %69 = and i32 %66, -3073
  %70 = or i32 %69, %68
  store i32 %70, ptr %61, align 8
  %71 = icmp eq i32 %67, 3
  br i1 %71, label %72, label %78

72:                                               ; preds = %59
  %73 = load ptr, ptr %4, align 8
  %74 = getelementptr inbounds %struct.Fraig_NodeStruct_t_, ptr %73, i32 0, i32 6
  %75 = load i32, ptr %74, align 8
  %76 = and i32 %75, -3073
  %77 = or i32 %76, 2048
  store i32 %77, ptr %74, align 8
  br label %78

78:                                               ; preds = %72, %59, %44
  %79 = load ptr, ptr %3, align 8
  %80 = getelementptr inbounds %struct.Fraig_NodeVecStruct_t_, ptr %79, i32 0, i32 2
  %81 = load ptr, ptr %80, align 8
  %82 = load i32, ptr %5, align 4
  %83 = sext i32 %82 to i64
  %84 = getelementptr inbounds ptr, ptr %81, i64 %83
  %85 = load ptr, ptr %84, align 8
  %86 = getelementptr inbounds %struct.Fraig_NodeStruct_t_, ptr %85, i32 0, i32 8
  %87 = load ptr, ptr %86, align 8
  %88 = ptrtoint ptr %87 to i64
  %89 = and i64 %88, -2
  %90 = inttoptr i64 %89 to ptr
  store ptr %90, ptr %4, align 8
  %91 = load ptr, ptr %4, align 8
  %92 = icmp ne ptr %91, null
  br i1 %92, label %93, label %112

93:                                               ; preds = %78
  %94 = load ptr, ptr %4, align 8
  %95 = getelementptr inbounds %struct.Fraig_NodeStruct_t_, ptr %94, i32 0, i32 6
  %96 = load i32, ptr %95, align 8
  %97 = lshr i32 %96, 10
  %98 = and i32 %97, 3
  %99 = add i32 %98, 1
  %100 = load i32, ptr %95, align 8
  %101 = and i32 %99, 3
  %102 = shl i32 %101, 10
  %103 = and i32 %100, -3073
  %104 = or i32 %103, %102
  store i32 %104, ptr %95, align 8
  %105 = icmp eq i32 %101, 3
  br i1 %105, label %106, label %112

106:                                              ; preds = %93
  %107 = load ptr, ptr %4, align 8
  %108 = getelementptr inbounds %struct.Fraig_NodeStruct_t_, ptr %107, i32 0, i32 6
  %109 = load i32, ptr %108, align 8
  %110 = and i32 %109, -3073
  %111 = or i32 %110, 2048
  store i32 %111, ptr %108, align 8
  br label %112

112:                                              ; preds = %106, %93, %78
  br label %113

113:                                              ; preds = %112
  %114 = load i32, ptr %5, align 4
  %115 = add nsw i32 %114, 1
  store i32 %115, ptr %5, align 4
  br label %38, !llvm.loop !8

116:                                              ; preds = %38
  %117 = load ptr, ptr %3, align 8
  call void @Fraig_NodeVecFree(ptr noundef %117)
  ret void
}