; Function Attrs: nounwind uwtable
define void @Fraig_ManMarkRealFanouts(ptr noundef captures(none) %0) local_unnamed_addr #0 {
  %2 = getelementptr inbounds nuw i8, ptr %0, i64 128
  %3 = load i32, ptr %2, align 8
  %4 = add nsw i32 %3, 1
  store i32 %4, ptr %2, align 8
  %5 = tail call ptr @Fraig_NodeVecAlloc(i32 noundef 100) #15
  %6 = getelementptr inbounds nuw i8, ptr %0, i64 16
  %7 = load ptr, ptr %6, align 8
  %8 = getelementptr inbounds nuw i8, ptr %7, i64 4
  %9 = load i32, ptr %8, align 4
  %10 = icmp sgt i32 %9, 0
  br i1 %10, label %.lr.ph.i, label %Fraig_Dfs.exit

.lr.ph.i:                                         ; preds = %1, %.lr.ph.i
  %indvars.iv.i = phi i64 [ %indvars.iv.next.i, %.lr.ph.i ], [ 0, %1 ]
  %11 = phi ptr [ %19, %.lr.ph.i ], [ %7, %1 ]
  %12 = getelementptr inbounds nuw i8, ptr %11, i64 8
  %13 = load ptr, ptr %12, align 8
  %14 = getelementptr inbounds nuw ptr, ptr %13, i64 %indvars.iv.i
  %15 = load ptr, ptr %14, align 8
  %16 = ptrtoint ptr %15 to i64
  %17 = and i64 %16, -2
  %18 = inttoptr i64 %17 to ptr
  %.val.i = load i32, ptr %2, align 8
  tail call fastcc void @Fraig_Dfs_rec(i32 %.val.i, ptr noundef %18, ptr noundef %5, i32 noundef 0)
  %indvars.iv.next.i = add nuw nsw i64 %indvars.iv.i, 1
  %19 = load ptr, ptr %6, align 8
  %20 = getelementptr inbounds nuw i8, ptr %19, i64 4
  %21 = load i32, ptr %20, align 4
  %22 = sext i32 %21 to i64
  %23 = icmp slt i64 %indvars.iv.next.i, %22
  br i1 %23, label %.lr.ph.i, label %Fraig_Dfs.exit, !llvm.loop !4

Fraig_Dfs.exit:                                   ; preds = %.lr.ph.i, %1
  %24 = getelementptr inbounds nuw i8, ptr %5, i64 4
  %25 = load i32, ptr %24, align 4
  %26 = icmp sgt i32 %25, 0
  br i1 %26, label %.lr.ph, label %._crit_edge

.lr.ph:                                           ; preds = %Fraig_Dfs.exit
  %27 = getelementptr inbounds nuw i8, ptr %5, i64 8
  br label %30

.preheader:                                       ; preds = %30
  %28 = icmp sgt i32 %41, 0
  br i1 %28, label %.lr.ph27, label %._crit_edge

.lr.ph27:                                         ; preds = %.preheader
  %29 = getelementptr inbounds nuw i8, ptr %5, i64 8
  br label %44

30:                                               ; preds = %.lr.ph, %30
  %indvars.iv = phi i64 [ 0, %.lr.ph ], [ %indvars.iv.next, %30 ]
  %31 = load ptr, ptr %27, align 8
  %32 = getelementptr inbounds nuw ptr, ptr %31, i64 %indvars.iv
  %33 = load ptr, ptr %32, align 8
  %34 = getelementptr inbounds nuw i8, ptr %33, i64 24
  %35 = load i32, ptr %34, align 8
  %36 = and i32 %35, -3073
  store i32 %36, ptr %34, align 8
  %37 = load ptr, ptr %27, align 8
  %38 = getelementptr inbounds nuw ptr, ptr %37, i64 %indvars.iv
  %39 = load ptr, ptr %38, align 8
  %40 = getelementptr inbounds nuw i8, ptr %39, i64 120
  store ptr null, ptr %40, align 8
  %indvars.iv.next = add nuw nsw i64 %indvars.iv, 1
  %41 = load i32, ptr %24, align 4
  %42 = sext i32 %41 to i64
  %43 = icmp slt i64 %indvars.iv.next, %42
  br i1 %43, label %30, label %.preheader, !llvm.loop !7

44:                                               ; preds = %.lr.ph27, %78
  %indvars.iv29 = phi i64 [ 0, %.lr.ph27 ], [ %indvars.iv.next30, %78 ]
  %45 = load ptr, ptr %29, align 8
  %46 = getelementptr inbounds nuw ptr, ptr %45, i64 %indvars.iv29
  %47 = load ptr, ptr %46, align 8
  %48 = getelementptr inbounds nuw i8, ptr %47, i64 32
  %49 = load ptr, ptr %48, align 8
  %50 = ptrtoint ptr %49 to i64
  %51 = and i64 %50, -2
  %.not = icmp eq i64 %51, 0
  br i1 %.not, label %62, label %52

52:                                               ; preds = %44
  %53 = inttoptr i64 %51 to ptr
  %54 = getelementptr inbounds nuw i8, ptr %53, i64 24
  %55 = load i32, ptr %54, align 8
  %56 = add i32 %55, 1024
  %57 = and i32 %56, 3072
  %58 = and i32 %55, -3073
  %59 = or disjoint i32 %57, %58
  %60 = and i32 %55, 3072
  %61 = icmp eq i32 %60, 2048
  %spec.store.select = select i1 %61, i32 %55, i32 %59
  store i32 %spec.store.select, ptr %54, align 8
  %.pre = load ptr, ptr %29, align 8
  %.phi.trans.insert = getelementptr inbounds nuw ptr, ptr %.pre, i64 %indvars.iv29
  %.pre32 = load ptr, ptr %.phi.trans.insert, align 8
  br label %62

62:                                               ; preds = %52, %44
  %63 = phi ptr [ %.pre32, %52 ], [ %47, %44 ]
  %64 = getelementptr inbounds nuw i8, ptr %63, i64 40
  %65 = load ptr, ptr %64, align 8
  %66 = ptrtoint ptr %65 to i64
  %67 = and i64 %66, -2
  %.not23 = icmp eq i64 %67, 0
  br i1 %.not23, label %78, label %68

68:                                               ; preds = %62
  %69 = inttoptr i64 %67 to ptr
  %70 = getelementptr inbounds nuw i8, ptr %69, i64 24
  %71 = load i32, ptr %70, align 8
  %72 = add i32 %71, 1024
  %73 = and i32 %72, 3072
  %74 = and i32 %71, -3073
  %75 = or disjoint i32 %73, %74
  %76 = and i32 %71, 3072
  %77 = icmp eq i32 %76, 2048
  %spec.store.select24 = select i1 %77, i32 %71, i32 %75
  store i32 %spec.store.select24, ptr %70, align 8
  br label %78

78:                                               ; preds = %68, %62
  %indvars.iv.next30 = add nuw nsw i64 %indvars.iv29, 1
  %79 = load i32, ptr %24, align 4
  %80 = sext i32 %79 to i64
  %81 = icmp slt i64 %indvars.iv.next30, %80
  br i1 %81, label %44, label %._crit_edge, !llvm.loop !8

._crit_edge:                                      ; preds = %78, %Fraig_Dfs.exit, %.preheader
  tail call void @Fraig_NodeVecFree(ptr noundef nonnull %5) #15
  ret void
}